; ModuleID = '55/389.c'
source_filename = "55/389.c"
target datalayout = "e-m:e-p270:32:32-p271:32:32-p272:64:64-i64:64-f80:128-n8:16:32:64-S128"
target triple = "x86_64-pc-linux-gnu"

@.str = private unnamed_addr constant [7 x i8] c"%d%s%d\00", align 1
@.str.1 = private unnamed_addr constant [3 x i8] c"%c\00", align 1
@.str.2 = private unnamed_addr constant [3 x i8] c"%d\00", align 1

; Function Attrs: noinline nounwind uwtable
define dso_local i32 @main() #0 {
  %1 = alloca i32, align 4
  %2 = alloca i32, align 4
  %3 = alloca i32, align 4
  %4 = alloca i32, align 4
  %5 = alloca i32, align 4
  %6 = alloca i32, align 4
  %7 = alloca i64, align 8
  %8 = alloca i64, align 8
  %9 = alloca [33 x i8], align 16
  store i32 0, i32* %1, align 4
  store i64 0, i64* %8, align 8
  %10 = getelementptr inbounds [33 x i8], [33 x i8]* %9, i64 0, i64 0
  %11 = call i32 (i8*, ...) @__isoc99_scanf(i8* getelementptr inbounds ([7 x i8], [7 x i8]* @.str, i64 0, i64 0), i32* %2, i8* %10, i32* %3)
  %12 = getelementptr inbounds [33 x i8], [33 x i8]* %9, i64 0, i64 0
  %13 = call i64 @strlen(i8* %12) #3
  %14 = trunc i64 %13 to i32
  store i32 %14, i32* %4, align 4
  store i32 0, i32* %5, align 4
  br label %15

15:                                               ; preds = %42, %0
  %16 = load i32, i32* %5, align 4
  %17 = load i32, i32* %4, align 4
  %18 = icmp slt i32 %16, %17
  br i1 %18, label %19, label %45

19:                                               ; preds = %15
  %20 = load i32, i32* %5, align 4
  %21 = sext i32 %20 to i64
  %22 = getelementptr inbounds [33 x i8], [33 x i8]* %9, i64 0, i64 %21
  %23 = load i8, i8* %22, align 1
  %24 = sext i8 %23 to i32
  %25 = icmp sge i32 %24, 97
  br i1 %25, label %26, label %41

26:                                               ; preds = %19
  %27 = load i32, i32* %5, align 4
  %28 = sext i32 %27 to i64
  %29 = getelementptr inbounds [33 x i8], [33 x i8]* %9, i64 0, i64 %28
  %30 = load i8, i8* %29, align 1
  %31 = sext i8 %30 to i32
  %32 = icmp sle i32 %31, 122
  br i1 %32, label %33, label %41

33:                                               ; preds = %26
  %34 = load i32, i32* %5, align 4
  %35 = sext i32 %34 to i64
  %36 = getelementptr inbounds [33 x i8], [33 x i8]* %9, i64 0, i64 %35
  %37 = load i8, i8* %36, align 1
  %38 = sext i8 %37 to i32
  %39 = sub nsw i32 %38, 32
  %40 = trunc i32 %39 to i8
  store i8 %40, i8* %36, align 1
  br label %41

41:                                               ; preds = %33, %26, %19
  br label %42

42:                                               ; preds = %41
  %43 = load i32, i32* %5, align 4
  %44 = add nsw i32 %43, 1
  store i32 %44, i32* %5, align 4
  br label %15

45:                                               ; preds = %15
  store i32 0, i32* %5, align 4
  br label %46

46:                                               ; preds = %105, %45
  %47 = load i32, i32* %5, align 4
  %48 = load i32, i32* %4, align 4
  %49 = icmp slt i32 %47, %48
  br i1 %49, label %50, label %108

50:                                               ; preds = %46
  %51 = load i32, i32* %5, align 4
  %52 = sext i32 %51 to i64
  %53 = getelementptr inbounds [33 x i8], [33 x i8]* %9, i64 0, i64 %52
  %54 = load i8, i8* %53, align 1
  %55 = sext i8 %54 to i32
  %56 = icmp sge i32 %55, 65
  br i1 %56, label %57, label %72

57:                                               ; preds = %50
  %58 = load i32, i32* %5, align 4
  %59 = sext i32 %58 to i64
  %60 = getelementptr inbounds [33 x i8], [33 x i8]* %9, i64 0, i64 %59
  %61 = load i8, i8* %60, align 1
  %62 = sext i8 %61 to i32
  %63 = icmp sle i32 %62, 90
  br i1 %63, label %64, label %72

64:                                               ; preds = %57
  %65 = load i32, i32* %5, align 4
  %66 = sext i32 %65 to i64
  %67 = getelementptr inbounds [33 x i8], [33 x i8]* %9, i64 0, i64 %66
  %68 = load i8, i8* %67, align 1
  %69 = sext i8 %68 to i32
  %70 = sub nsw i32 %69, 55
  %71 = trunc i32 %70 to i8
  store i8 %71, i8* %67, align 1
  br label %80

72:                                               ; preds = %57, %50
  %73 = load i32, i32* %5, align 4
  %74 = sext i32 %73 to i64
  %75 = getelementptr inbounds [33 x i8], [33 x i8]* %9, i64 0, i64 %74
  %76 = load i8, i8* %75, align 1
  %77 = sext i8 %76 to i32
  %78 = sub nsw i32 %77, 48
  %79 = trunc i32 %78 to i8
  store i8 %79, i8* %75, align 1
  br label %80

80:                                               ; preds = %72, %64
  store i64 1, i64* %7, align 8
  store i32 1, i32* %6, align 4
  br label %81

81:                                               ; preds = %92, %80
  %82 = load i32, i32* %6, align 4
  %83 = load i32, i32* %4, align 4
  %84 = load i32, i32* %5, align 4
  %85 = sub nsw i32 %83, %84
  %86 = icmp slt i32 %82, %85
  br i1 %86, label %87, label %95

87:                                               ; preds = %81
  %88 = load i32, i32* %2, align 4
  %89 = sext i32 %88 to i64
  %90 = load i64, i64* %7, align 8
  %91 = mul nsw i64 %90, %89
  store i64 %91, i64* %7, align 8
  br label %92

92:                                               ; preds = %87
  %93 = load i32, i32* %6, align 4
  %94 = add nsw i32 %93, 1
  store i32 %94, i32* %6, align 4
  br label %81

95:                                               ; preds = %81
  %96 = load i64, i64* %8, align 8
  %97 = load i32, i32* %5, align 4
  %98 = sext i32 %97 to i64
  %99 = getelementptr inbounds [33 x i8], [33 x i8]* %9, i64 0, i64 %98
  %100 = load i8, i8* %99, align 1
  %101 = sext i8 %100 to i64
  %102 = load i64, i64* %7, align 8
  %103 = mul nsw i64 %101, %102
  %104 = add nsw i64 %96, %103
  store i64 %104, i64* %8, align 8
  br label %105

105:                                              ; preds = %95
  %106 = load i32, i32* %5, align 4
  %107 = add nsw i32 %106, 1
  store i32 %107, i32* %5, align 4
  br label %46

108:                                              ; preds = %46
  store i32 0, i32* %5, align 4
  br label %109

109:                                              ; preds = %114, %108
  %110 = load i64, i64* %8, align 8
  %111 = load i32, i32* %3, align 4
  %112 = sext i32 %111 to i64
  %113 = icmp sge i64 %110, %112
  br i1 %113, label %114, label %135

114:                                              ; preds = %109
  %115 = load i64, i64* %8, align 8
  %116 = load i32, i32* %3, align 4
  %117 = sext i32 %116 to i64
  %118 = srem i64 %115, %117
  %119 = trunc i64 %118 to i8
  %120 = load i32, i32* %5, align 4
  %121 = sext i32 %120 to i64
  %122 = getelementptr inbounds [33 x i8], [33 x i8]* %9, i64 0, i64 %121
  store i8 %119, i8* %122, align 1
  %123 = load i64, i64* %8, align 8
  %124 = load i32, i32* %5, align 4
  %125 = sext i32 %124 to i64
  %126 = getelementptr inbounds [33 x i8], [33 x i8]* %9, i64 0, i64 %125
  %127 = load i8, i8* %126, align 1
  %128 = sext i8 %127 to i64
  %129 = sub nsw i64 %123, %128
  %130 = load i32, i32* %3, align 4
  %131 = sext i32 %130 to i64
  %132 = sdiv i64 %129, %131
  store i64 %132, i64* %8, align 8
  %133 = load i32, i32* %5, align 4
  %134 = add nsw i32 %133, 1
  store i32 %134, i32* %5, align 4
  br label %109

135:                                              ; preds = %109
  %136 = load i64, i64* %8, align 8
  %137 = trunc i64 %136 to i8
  %138 = load i32, i32* %5, align 4
  %139 = sext i32 %138 to i64
  %140 = getelementptr inbounds [33 x i8], [33 x i8]* %9, i64 0, i64 %139
  store i8 %137, i8* %140, align 1
  store i32 0, i32* %6, align 4
  br label %141

141:                                              ; preds = %188, %135
  %142 = load i32, i32* %6, align 4
  %143 = load i32, i32* %5, align 4
  %144 = icmp sle i32 %142, %143
  br i1 %144, label %145, label %191

145:                                              ; preds = %141
  %146 = load i32, i32* %5, align 4
  %147 = load i32, i32* %6, align 4
  %148 = sub nsw i32 %146, %147
  %149 = sext i32 %148 to i64
  %150 = getelementptr inbounds [33 x i8], [33 x i8]* %9, i64 0, i64 %149
  %151 = load i8, i8* %150, align 1
  %152 = sext i8 %151 to i32
  %153 = icmp sgt i32 %152, 9
  br i1 %153, label %154, label %178

154:                                              ; preds = %145
  %155 = load i32, i32* %5, align 4
  %156 = load i32, i32* %6, align 4
  %157 = sub nsw i32 %155, %156
  %158 = sext i32 %157 to i64
  %159 = getelementptr inbounds [33 x i8], [33 x i8]* %9, i64 0, i64 %158
  %160 = load i8, i8* %159, align 1
  %161 = sext i8 %160 to i32
  %162 = sub nsw i32 %161, 9
  %163 = add nsw i32 %162, 64
  %164 = trunc i32 %163 to i8
  %165 = load i32, i32* %5, align 4
  %166 = load i32, i32* %6, align 4
  %167 = sub nsw i32 %165, %166
  %168 = sext i32 %167 to i64
  %169 = getelementptr inbounds [33 x i8], [33 x i8]* %9, i64 0, i64 %168
  store i8 %164, i8* %169, align 1
  %170 = load i32, i32* %5, align 4
  %171 = load i32, i32* %6, align 4
  %172 = sub nsw i32 %170, %171
  %173 = sext i32 %172 to i64
  %174 = getelementptr inbounds [33 x i8], [33 x i8]* %9, i64 0, i64 %173
  %175 = load i8, i8* %174, align 1
  %176 = sext i8 %175 to i32
  %177 = call i32 (i8*, ...) @printf(i8* getelementptr inbounds ([3 x i8], [3 x i8]* @.str.1, i64 0, i64 0), i32 %176)
  br label %187

178:                                              ; preds = %145
  %179 = load i32, i32* %5, align 4
  %180 = load i32, i32* %6, align 4
  %181 = sub nsw i32 %179, %180
  %182 = sext i32 %181 to i64
  %183 = getelementptr inbounds [33 x i8], [33 x i8]* %9, i64 0, i64 %182
  %184 = load i8, i8* %183, align 1
  %185 = sext i8 %184 to i32
  %186 = call i32 (i8*, ...) @printf(i8* getelementptr inbounds ([3 x i8], [3 x i8]* @.str.2, i64 0, i64 0), i32 %185)
  br label %187

187:                                              ; preds = %178, %154
  br label %188

188:                                              ; preds = %187
  %189 = load i32, i32* %6, align 4
  %190 = add nsw i32 %189, 1
  store i32 %190, i32* %6, align 4
  br label %141

191:                                              ; preds = %141
  %192 = load i32, i32* %1, align 4
  ret i32 %192
}

declare dso_local i32 @__isoc99_scanf(i8*, ...) #1

; Function Attrs: nounwind readonly
declare dso_local i64 @strlen(i8*) #2

declare dso_local i32 @printf(i8*, ...) #1


!llvm.module.flags = !{!0}
!llvm.ident = !{!1}

!0 = !{i32 1, !"wchar_size", i32 4}
!1 = !{!"clang version 10.0.0-4ubuntu1 "}
